target datalayout = "e-m:e-p270:32:32-p271:32:32-p272:64:64-i64:64-i128:128-f80:128-n8:16:32:64-S128"
target triple = "x86_64-pc-linux-gnu"

; Function Attrs: nounwind uwtable
define internal void @conv_AV_SAMPLE_FMT_DBL_to_AV_SAMPLE_FMT_DBL(ptr noundef %0, ptr noundef %1, i32 noundef %2, i32 noundef %3, ptr noundef %4) #0 {
  %6 = alloca ptr, align 8
  %7 = alloca ptr, align 8
  %8 = alloca i32, align 4
  %9 = alloca i32, align 4
  %10 = alloca ptr, align 8
  %11 = alloca ptr, align 8
  store ptr %0, ptr %6, align 8, !tbaa !22
  store ptr %1, ptr %7, align 8, !tbaa !22
  store i32 %2, ptr %8, align 4, !tbaa !4
  store i32 %3, ptr %9, align 4, !tbaa !4
  store ptr %4, ptr %10, align 8, !tbaa !22
  call void @llvm.lifetime.start.p0(i64 8, ptr %11) #8
  %12 = load ptr, ptr %10, align 8, !tbaa !22
  %13 = load i32, ptr %9, align 4, !tbaa !4
  %14 = mul nsw i32 3, %13
  %15 = sext i32 %14 to i64
  %16 = sub i64 0, %15
  %17 = getelementptr inbounds i8, ptr %12, i64 %16
  store ptr %17, ptr %11, align 8, !tbaa !22
  br label %18

18:                                               ; preds = %22, %5
  %19 = load ptr, ptr %6, align 8, !tbaa !22
  %20 = load ptr, ptr %11, align 8, !tbaa !22
  %21 = icmp ult ptr %19, %20
  br i1 %21, label %22, label %67

22:                                               ; preds = %18
  %23 = load ptr, ptr %7, align 8, !tbaa !22
  %24 = load double, ptr %23, align 8, !tbaa !52
  %25 = load ptr, ptr %6, align 8, !tbaa !22
  store double %24, ptr %25, align 8, !tbaa !52
  %26 = load i32, ptr %8, align 4, !tbaa !4
  %27 = load ptr, ptr %7, align 8, !tbaa !22
  %28 = sext i32 %26 to i64
  %29 = getelementptr inbounds i8, ptr %27, i64 %28
  store ptr %29, ptr %7, align 8, !tbaa !22
  %30 = load i32, ptr %9, align 4, !tbaa !4
  %31 = load ptr, ptr %6, align 8, !tbaa !22
  %32 = sext i32 %30 to i64
  %33 = getelementptr inbounds i8, ptr %31, i64 %32
  store ptr %33, ptr %6, align 8, !tbaa !22
  %34 = load ptr, ptr %7, align 8, !tbaa !22
  %35 = load double, ptr %34, align 8, !tbaa !52
  %36 = load ptr, ptr %6, align 8, !tbaa !22
  store double %35, ptr %36, align 8, !tbaa !52
  %37 = load i32, ptr %8, align 4, !tbaa !4
  %38 = load ptr, ptr %7, align 8, !tbaa !22
  %39 = sext i32 %37 to i64
  %40 = getelementptr inbounds i8, ptr %38, i64 %39
  store ptr %40, ptr %7, align 8, !tbaa !22
  %41 = load i32, ptr %9, align 4, !tbaa !4
  %42 = load ptr, ptr %6, align 8, !tbaa !22
  %43 = sext i32 %41 to i64
  %44 = getelementptr inbounds i8, ptr %42, i64 %43
  store ptr %44, ptr %6, align 8, !tbaa !22
  %45 = load ptr, ptr %7, align 8, !tbaa !22
  %46 = load double, ptr %45, align 8, !tbaa !52
  %47 = load ptr, ptr %6, align 8, !tbaa !22
  store double %46, ptr %47, align 8, !tbaa !52
  %48 = load i32, ptr %8, align 4, !tbaa !4
  %49 = load ptr, ptr %7, align 8, !tbaa !22
  %50 = sext i32 %48 to i64
  %51 = getelementptr inbounds i8, ptr %49, i64 %50
  store ptr %51, ptr %7, align 8, !tbaa !22
  %52 = load i32, ptr %9, align 4, !tbaa !4
  %53 = load ptr, ptr %6, align 8, !tbaa !22
  %54 = sext i32 %52 to i64
  %55 = getelementptr inbounds i8, ptr %53, i64 %54
  store ptr %55, ptr %6, align 8, !tbaa !22
  %56 = load ptr, ptr %7, align 8, !tbaa !22
  %57 = load double, ptr %56, align 8, !tbaa !52
  %58 = load ptr, ptr %6, align 8, !tbaa !22
  store double %57, ptr %58, align 8, !tbaa !52
  %59 = load i32, ptr %8, align 4, !tbaa !4
  %60 = load ptr, ptr %7, align 8, !tbaa !22
  %61 = sext i32 %59 to i64
  %62 = getelementptr inbounds i8, ptr %60, i64 %61
  store ptr %62, ptr %7, align 8, !tbaa !22
  %63 = load i32, ptr %9, align 4, !tbaa !4
  %64 = load ptr, ptr %6, align 8, !tbaa !22
  %65 = sext i32 %63 to i64
  %66 = getelementptr inbounds i8, ptr %64, i64 %65
  store ptr %66, ptr %6, align 8, !tbaa !22
  br label %18, !llvm.loop !104

67:                                               ; preds = %18
  br label %68

68:                                               ; preds = %72, %67
  %69 = load ptr, ptr %6, align 8, !tbaa !22
  %70 = load ptr, ptr %10, align 8, !tbaa !22
  %71 = icmp ult ptr %69, %70
  br i1 %71, label %72, label %84

72:                                               ; preds = %68
  %73 = load ptr, ptr %7, align 8, !tbaa !22
  %74 = load double, ptr %73, align 8, !tbaa !52
  %75 = load ptr, ptr %6, align 8, !tbaa !22
  store double %74, ptr %75, align 8, !tbaa !52
  %76 = load i32, ptr %8, align 4, !tbaa !4
  %77 = load ptr, ptr %7, align 8, !tbaa !22
  %78 = sext i32 %76 to i64
  %79 = getelementptr inbounds i8, ptr %77, i64 %78
  store ptr %79, ptr %7, align 8, !tbaa !22
  %80 = load i32, ptr %9, align 4, !tbaa !4
  %81 = load ptr, ptr %6, align 8, !tbaa !22
  %82 = sext i32 %80 to i64
  %83 = getelementptr inbounds i8, ptr %81, i64 %82
  store ptr %83, ptr %6, align 8, !tbaa !22
  br label %68, !llvm.loop !105

84:                                               ; preds = %68
  call void @llvm.lifetime.end.p0(i64 8, ptr %11) #8
  ret void
}